target datalayout = "e-m:e-p270:32:32-p271:32:32-p272:64:64-i64:64-i128:128-f80:128-n8:16:32:64-S128"
target triple = "x86_64-pc-linux-gnu"

@.str.19 = private unnamed_addr constant [31 x i8] c"Crypter counter is overflowed.\00", align 1

; Function Attrs: mustprogress uwtable
define internal void @_ZL20maybe_copy_error_msgPKcPPc(ptr noundef %0, ptr noundef %1) #2 {
  %3 = alloca ptr, align 8
  %4 = alloca ptr, align 8
  store ptr %0, ptr %3, align 8, !tbaa !32
  store ptr %1, ptr %4, align 8, !tbaa !17
  %5 = load ptr, ptr %4, align 8, !tbaa !17
  %6 = icmp ne ptr %5, null
  br i1 %6, label %7, label %22

7:                                                ; preds = %2
  %8 = load ptr, ptr %3, align 8, !tbaa !32
  %9 = icmp ne ptr %8, null
  br i1 %9, label %10, label %22

10:                                               ; preds = %7
  %11 = load ptr, ptr %3, align 8, !tbaa !32
  %12 = call i64 @strlen(ptr noundef %11) #9
  %13 = add i64 %12, 1
  %14 = call ptr @gpr_malloc(i64 noundef %13)
  %15 = load ptr, ptr %4, align 8, !tbaa !17
  store ptr %14, ptr %15, align 8, !tbaa !32
  %16 = load ptr, ptr %4, align 8, !tbaa !17
  %17 = load ptr, ptr %16, align 8, !tbaa !32
  %18 = load ptr, ptr %3, align 8, !tbaa !32
  %19 = load ptr, ptr %3, align 8, !tbaa !32
  %20 = call i64 @strlen(ptr noundef %19) #9
  %21 = add i64 %20, 1
  call void @llvm.memcpy.p0.p0.i64(ptr align 1 %17, ptr align 1 %18, i64 %21, i1 false)
  br label %22

22:                                               ; preds = %10, %7, %2
  ret void
}

; Function Attrs: mustprogress uwtable
define internal noundef i32 @_ZL17increment_counterP12alts_counterPPc(ptr noundef %0, ptr noundef %1) #2 {
  %3 = alloca i32, align 4
  %4 = alloca ptr, align 8
  %5 = alloca ptr, align 8
  %6 = alloca i8, align 1
  %7 = alloca i32, align 4
  %8 = alloca i32, align 4
  store ptr %0, ptr %4, align 8, !tbaa !37
  store ptr %1, ptr %5, align 8, !tbaa !17
  %9 = load ptr, ptr %4, align 8, !tbaa !37
  %10 = icmp eq ptr %9, null
  br i1 %10, label %11, label %12

11:                                               ; preds = %2
  store i32 9, ptr %3, align 4
  br label %27

12:                                               ; preds = %2
  call void @llvm.lifetime.start.p0(i64 1, ptr %6) #8
  store i8 0, ptr %6, align 1, !tbaa !38
  call void @llvm.lifetime.start.p0(i64 4, ptr %7) #8
  %13 = load ptr, ptr %4, align 8, !tbaa !37
  %14 = load ptr, ptr %5, align 8, !tbaa !17
  %15 = call noundef i32 @_Z22alts_counter_incrementP12alts_counterPbPPc(ptr noundef %13, ptr noundef %6, ptr noundef %14)
  store i32 %15, ptr %7, align 4, !tbaa !26
  %16 = load i32, ptr %7, align 4, !tbaa !26
  %17 = icmp ne i32 %16, 0
  br i1 %17, label %18, label %20

18:                                               ; preds = %12
  %19 = load i32, ptr %7, align 4, !tbaa !26
  store i32 %19, ptr %3, align 4
  store i32 1, ptr %8, align 4
  br label %26

20:                                               ; preds = %12
  %21 = load i8, ptr %6, align 1, !tbaa !38, !range !21, !noundef !22
  %22 = trunc i8 %21 to i1
  br i1 %22, label %23, label %25

23:                                               ; preds = %20
  %24 = load ptr, ptr %5, align 8, !tbaa !17
  call void @_ZL20maybe_copy_error_msgPKcPPc(ptr noundef @.str.19, ptr noundef %24)
  store i32 13, ptr %3, align 4
  store i32 1, ptr %8, align 4
  br label %26

25:                                               ; preds = %20
  store i32 0, ptr %3, align 4
  store i32 1, ptr %8, align 4
  br label %26

26:                                               ; preds = %25, %23, %18
  call void @llvm.lifetime.end.p0(i64 4, ptr %7) #8
  call void @llvm.lifetime.end.p0(i64 1, ptr %6) #8
  br label %27

27:                                               ; preds = %26, %11
  %28 = load i32, ptr %3, align 4
  ret i32 %28
}