; Function Attrs: mustprogress uwtable
define internal fastcc noundef i32 @_ZL17increment_counterP12alts_counterPPc(ptr noundef %0, ptr noundef %1) unnamed_addr #3 {
  %3 = alloca i8, align 1
  %4 = icmp eq ptr %0, null
  br i1 %4, label %13, label %5

5:                                                ; preds = %2
  call void @llvm.lifetime.start.p0(i64 1, ptr nonnull %3) #11
  store i8 0, ptr %3, align 1, !tbaa !27
  %6 = call noundef i32 @_Z22alts_counter_incrementP12alts_counterPbPPc(ptr noundef nonnull %0, ptr noundef nonnull %3, ptr noundef %1)
  %.not = icmp eq i32 %6, 0
  br i1 %.not, label %7, label %_ZL20maybe_copy_error_msgPKcPPc.exit

7:                                                ; preds = %5
  %8 = load i8, ptr %3, align 1, !tbaa !27, !range !15, !noundef !16
  %9 = trunc nuw i8 %8 to i1
  br i1 %9, label %10, label %_ZL20maybe_copy_error_msgPKcPPc.exit

10:                                               ; preds = %7
  %.not8 = icmp eq ptr %1, null
  br i1 %.not8, label %_ZL20maybe_copy_error_msgPKcPPc.exit, label %11

11:                                               ; preds = %10
  %12 = call ptr @gpr_malloc(i64 noundef 31)
  store ptr %12, ptr %1, align 8, !tbaa !12
  call void @llvm.memcpy.p0.p0.i64(ptr noundef nonnull align 1 dereferenceable(31) %12, ptr noundef nonnull align 1 dereferenceable(31) @.str.19, i64 31, i1 false)
  br label %_ZL20maybe_copy_error_msgPKcPPc.exit

_ZL20maybe_copy_error_msgPKcPPc.exit:             ; preds = %11, %10, %7, %5
  %.1 = phi i32 [ %6, %5 ], [ 0, %7 ], [ 13, %10 ], [ 13, %11 ]
  call void @llvm.lifetime.end.p0(i64 1, ptr nonnull %3) #11
  br label %13

13:                                               ; preds = %2, %_ZL20maybe_copy_error_msgPKcPPc.exit
  %.0 = phi i32 [ %.1, %_ZL20maybe_copy_error_msgPKcPPc.exit ], [ 9, %2 ]
  ret i32 %.0
}